Certificate:
    Data:
        Version: 3 (0x2)
        Serial Number:
            64:a3:f0:87:4d:12:61:71:8d:07:c1:09:ef:c7:e3:05:f2:00:61:71
        Signature Algorithm: sha256WithRSAEncryption
        Issuer: CN = tenacify.localhost
        Validity
            Not Before: Jan 14 21:37:29 2024 GMT
            Not After : Jan  9 21:37:29 2044 GMT
        Subject: CN = tenacify.localhost
        Subject Public Key Info:
            Public Key Algorithm: rsaEncryption
                Public-Key: (2048 bit)
                Modulus:
                    00:b7:29:23:ca:de:31:39:cb:78:46:bf:8c:00:8f:
                    47:17:7b:81:44:b2:db:a6:43:b9:c7:27:09:d9:c3:
                    f4:00:bc:d4:8c:55:01:f6:f7:9e:a1:22:bd:89:d1:
                    95:1f:64:5e:d5:f9:77:02:d2:0c:f1:7d:aa:7a:89:
                    2d:17:23:a1:85:2b:83:e6:d0:4c:54:c8:d2:7a:dd:
                    0a:ab:a5:ef:34:52:b2:44:43:e9:71:2f:6b:25:cf:
                    b5:86:84:03:8a:2c:06:2c:33:b3:5b:d8:03:81:d2:
                    78:1b:7a:bc:eb:3e:06:e6:49:25:fd:2f:82:f6:e7:
                    6d:f8:89:df:85:75:72:26:99:98:3b:c3:c9:71:30:
                    cc:0c:f9:84:d4:7e:5e:17:c7:81:e3:18:38:0c:0e:
                    c2:26:4b:dd:28:2c:3c:d9:1a:22:b1:5a:ff:15:2b:
                    e0:e1:84:c2:1d:b9:e9:d2:3a:66:fd:81:ab:16:60:
                    25:73:42:1e:d8:4f:8b:49:4c:3b:43:71:20:5b:51:
                    85:68:e7:68:db:1a:07:12:ea:3e:a1:df:c0:f5:17:
                    c0:d9:e8:56:c4:ed:90:c2:ce:75:80:a6:e8:f7:13:
                    3c:54:b8:80:13:89:c0:46:0d:3c:cc:c5:fe:82:79:
                    6b:c0:90:6e:a3:dc:34:29:e0:7b:9e:5c:f0:6f:0d:
                    da:fb
                Exponent: 65537 (0x10001)
        X509v3 extensions:
            X509v3 Subject Key Identifier: 
                E6:70:7D:97:77:C8:69:E7:10:13:91:08:0F:CA:CB:46:94:E2:08:12
            X509v3 Authority Key Identifier: 
                E6:70:7D:97:77:C8:69:E7:10:13:91:08:0F:CA:CB:46:94:E2:08:12
            X509v3 Basic Constraints: critical
                CA:TRUE
    Signature Algorithm: sha256WithRSAEncryption
    Signature Value:
        18:ca:e0:90:36:e9:90:7f:57:2d:a9:86:51:68:1d:2b:80:8a:
        28:60:87:36:7c:8e:0f:45:b2:a0:30:92:87:2b:61:af:9c:54:
        ee:2b:ff:91:d8:11:a0:a7:79:ce:1f:b3:1e:27:50:16:8b:43:
        58:42:c4:b9:ae:33:95:de:bf:19:93:0d:cb:81:08:09:c8:ab:
        c2:72:93:3d:f4:24:c1:8c:67:c2:ea:a9:21:c6:39:23:a3:bc:
        fb:09:80:7b:ff:01:9d:31:08:e9:b3:70:27:b4:50:48:6d:30:
        d1:d7:34:15:a8:01:cf:65:50:e5:d5:fa:d6:a6:ce:90:a4:44:
        91:1c:97:67:3c:93:a9:15:03:d2:fa:e8:3d:01:0a:3b:f2:0f:
        ab:e3:24:4b:df:1e:b3:ef:d7:8b:1c:93:c8:c7:cd:b4:ed:f4:
        c1:8d:0f:52:15:e8:13:7e:2d:c5:8a:2b:96:58:15:55:cc:2f:
        d4:9f:24:52:14:60:66:91:d6:6d:5f:3a:7c:82:ba:b5:99:21:
        b7:f6:a0:fd:c4:4d:71:a6:99:b5:74:ae:1a:88:0c:55:66:7b:
        6d:07:cb:df:9c:01:b0:46:36:cd:dc:fe:92:74:82:55:74:68:
        74:32:fc:84:3f:9f:12:96:6f:3c:d3:87:e4:0c:f6:9a:39:f5:
        dd:b8:99:1b
-----BEGIN CERTIFICATE-----
MIIDGzCCAgOgAwIBAgIUZKPwh00SYXGNB8EJ78fjBfIAYXEwDQYJKoZIhvcNAQEL
BQAwHTEbMBkGA1UEAwwSdGVuYWNpZnkubG9jYWxob3N0MB4XDTI0MDExNDIxMzcy
OVoXDTQ0MDEwOTIxMzcyOVowHTEbMBkGA1UEAwwSdGVuYWNpZnkubG9jYWxob3N0
MIIBIjANBgkqhkiG9w0BAQEFAAOCAQ8AMIIBCgKCAQEAtykjyt4xOct4Rr+MAI9H
F3uBRLLbpkO5xycJ2cP0ALzUjFUB9veeoSK9idGVH2Re1fl3AtIM8X2qeoktFyOh
hSuD5tBMVMjSet0Kq6XvNFKyREPpcS9rJc+1hoQDiiwGLDOzW9gDgdJ4G3q86z4G
5kkl/S+C9udt+InfhXVyJpmYO8PJcTDMDPmE1H5eF8eB4xg4DA7CJkvdKCw82Roi
sVr/FSvg4YTCHbnp0jpm/YGrFmAlc0Ie2E+LSUw7Q3EgW1GFaOdo2xoHEuo+od/A
9RfA2ehWxO2Qws51gKbo9xM8VLiAE4nARg08zMX+gnlrwJBuo9w0KeB7nlzwbw3a
+wIDAQABo1MwUTAdBgNVHQ4EFgQU5nB9l3fIaecQE5EID8rLRpTiCBIwHwYDVR0j
BBgwFoAU5nB9l3fIaecQE5EID8rLRpTiCBIwDwYDVR0TAQH/BAUwAwEB/zANBgkq
hkiG9w0BAQsFAAOCAQEAGMrgkDbpkH9XLamGUWgdK4CKKGCHNnyOD0WyoDCShyth
r5xU7iv/kdgRoKd5zh+zHidQFotDWELEua4zld6/GZMNy4EICcirwnKTPfQkwYxn
wuqpIcY5I6O8+wmAe/8BnTEI6bNwJ7RQSG0w0dc0FagBz2VQ5dX61qbOkKREkRyX
ZzyTqRUD0vroPQEKO/IPq+MkS98es+/XixyTyMfNtO30wY0PUhXoE34txYorllgV
Vcwv1J8kUhRgZpHWbV86fIK6tZkht/ag/cRNcaaZtXSuGogMVWZ7bQfL35wBsEY2
zdz+knSCVXRodDL8hD+fEpZvPNOH5Az2mjn13biZGw==
-----END CERTIFICATE-----
